target datalayout = "e-m:e-p270:32:32-p271:32:32-p272:64:64-i64:64-i128:128-f80:128-n8:16:32:64-S128"
target triple = "x86_64-pc-linux-gnu"

; Function Attrs: nounwind uwtable
define i32 @Abc_NodeCompareCubes2(ptr noundef %0, ptr noundef %1) #0 {
  %3 = alloca i32, align 4
  %4 = alloca ptr, align 8
  %5 = alloca ptr, align 8
  %6 = alloca ptr, align 8
  %7 = alloca ptr, align 8
  %8 = alloca i32, align 4
  %9 = alloca i32, align 4
  %10 = alloca i32, align 4
  %11 = alloca i32, align 4
  store ptr %0, ptr %4, align 8, !tbaa !64
  store ptr %1, ptr %5, align 8, !tbaa !64
  call void @llvm.lifetime.start.p0(i64 8, ptr %6) #10
  %12 = load ptr, ptr %4, align 8, !tbaa !64
  %13 = load ptr, ptr %12, align 8, !tbaa !32
  store ptr %13, ptr %6, align 8, !tbaa !32
  call void @llvm.lifetime.start.p0(i64 8, ptr %7) #10
  %14 = load ptr, ptr %5, align 8, !tbaa !64
  %15 = load ptr, ptr %14, align 8, !tbaa !32
  store ptr %15, ptr %7, align 8, !tbaa !32
  call void @llvm.lifetime.start.p0(i64 4, ptr %8) #10
  call void @llvm.lifetime.start.p0(i64 4, ptr %9) #10
  store i32 0, ptr %9, align 4, !tbaa !12
  call void @llvm.lifetime.start.p0(i64 4, ptr %10) #10
  store i32 0, ptr %10, align 4, !tbaa !12
  store i32 0, ptr %8, align 4, !tbaa !12
  br label %16

16:                                               ; preds = %44, %2
  %17 = load ptr, ptr %6, align 8, !tbaa !32
  %18 = load i32, ptr %8, align 4, !tbaa !12
  %19 = sext i32 %18 to i64
  %20 = getelementptr inbounds i8, ptr %17, i64 %19
  %21 = load i8, ptr %20, align 1, !tbaa !31
  %22 = icmp ne i8 %21, 0
  br i1 %22, label %23, label %47

23:                                               ; preds = %16
  %24 = load ptr, ptr %6, align 8, !tbaa !32
  %25 = load i32, ptr %8, align 4, !tbaa !12
  %26 = sext i32 %25 to i64
  %27 = getelementptr inbounds i8, ptr %24, i64 %26
  %28 = load i8, ptr %27, align 1, !tbaa !31
  %29 = sext i8 %28 to i32
  %30 = icmp ne i32 %29, 45
  %31 = zext i1 %30 to i32
  %32 = load i32, ptr %9, align 4, !tbaa !12
  %33 = add nsw i32 %32, %31
  store i32 %33, ptr %9, align 4, !tbaa !12
  %34 = load ptr, ptr %7, align 8, !tbaa !32
  %35 = load i32, ptr %8, align 4, !tbaa !12
  %36 = sext i32 %35 to i64
  %37 = getelementptr inbounds i8, ptr %34, i64 %36
  %38 = load i8, ptr %37, align 1, !tbaa !31
  %39 = sext i8 %38 to i32
  %40 = icmp ne i32 %39, 45
  %41 = zext i1 %40 to i32
  %42 = load i32, ptr %10, align 4, !tbaa !12
  %43 = add nsw i32 %42, %41
  store i32 %43, ptr %10, align 4, !tbaa !12
  br label %44

44:                                               ; preds = %23
  %45 = load i32, ptr %8, align 4, !tbaa !12
  %46 = add nsw i32 %45, 1
  store i32 %46, ptr %8, align 4, !tbaa !12
  br label %16, !llvm.loop !98

47:                                               ; preds = %16
  %48 = load i32, ptr %9, align 4, !tbaa !12
  %49 = load i32, ptr %10, align 4, !tbaa !12
  %50 = icmp sgt i32 %48, %49
  br i1 %50, label %51, label %52

51:                                               ; preds = %47
  store i32 -1, ptr %3, align 4
  store i32 1, ptr %11, align 4
  br label %63

52:                                               ; preds = %47
  %53 = load i32, ptr %9, align 4, !tbaa !12
  %54 = load i32, ptr %10, align 4, !tbaa !12
  %55 = icmp slt i32 %53, %54
  br i1 %55, label %56, label %57

56:                                               ; preds = %52
  store i32 1, ptr %3, align 4
  store i32 1, ptr %11, align 4
  br label %63

57:                                               ; preds = %52
  %58 = load ptr, ptr %4, align 8, !tbaa !64
  %59 = load ptr, ptr %58, align 8, !tbaa !32
  %60 = load ptr, ptr %5, align 8, !tbaa !64
  %61 = load ptr, ptr %60, align 8, !tbaa !32
  %62 = call i32 @strcmp(ptr noundef %59, ptr noundef %61) #13
  store i32 %62, ptr %3, align 4
  store i32 1, ptr %11, align 4
  br label %63

63:                                               ; preds = %57, %56, %51
  call void @llvm.lifetime.end.p0(i64 4, ptr %10) #10
  call void @llvm.lifetime.end.p0(i64 4, ptr %9) #10
  call void @llvm.lifetime.end.p0(i64 4, ptr %8) #10
  call void @llvm.lifetime.end.p0(i64 8, ptr %7) #10
  call void @llvm.lifetime.end.p0(i64 8, ptr %6) #10
  %64 = load i32, ptr %3, align 4
  ret i32 %64
}