; Function Attrs: nofree nounwind memory(read, inaccessiblemem: none) uwtable
define i32 @Abc_NodeCompareCubes2(ptr noundef readonly captures(none) %0, ptr noundef readonly captures(none) %1) #6 {
  %3 = load ptr, ptr %0, align 8, !tbaa !50
  %4 = load ptr, ptr %1, align 8, !tbaa !50
  %5 = load i8, ptr %3, align 1, !tbaa !35
  %.not21 = icmp eq i8 %5, 0
  br i1 %.not21, label %.thread, label %.lr.ph

.lr.ph:                                           ; preds = %2, %.lr.ph
  %indvars.iv = phi i64 [ %indvars.iv.next, %.lr.ph ], [ 0, %2 ]
  %6 = phi i8 [ %16, %.lr.ph ], [ %5, %2 ]
  %.024 = phi i32 [ %14, %.lr.ph ], [ 0, %2 ]
  %.01723 = phi i32 [ %9, %.lr.ph ], [ 0, %2 ]
  %7 = icmp ne i8 %6, 45
  %8 = zext i1 %7 to i32
  %9 = add nuw nsw i32 %.01723, %8
  %10 = getelementptr inbounds nuw i8, ptr %4, i64 %indvars.iv
  %11 = load i8, ptr %10, align 1, !tbaa !35
  %12 = icmp ne i8 %11, 45
  %13 = zext i1 %12 to i32
  %14 = add nuw nsw i32 %.024, %13
  %indvars.iv.next = add nuw nsw i64 %indvars.iv, 1
  %15 = getelementptr inbounds nuw i8, ptr %3, i64 %indvars.iv.next
  %16 = load i8, ptr %15, align 1, !tbaa !35
  %.not = icmp eq i8 %16, 0
  br i1 %.not, label %._crit_edge, label %.lr.ph, !llvm.loop !84

._crit_edge:                                      ; preds = %.lr.ph
  %17 = icmp samesign ugt i32 %9, %14
  br i1 %17, label %21, label %18

18:                                               ; preds = %._crit_edge
  %19 = icmp samesign ult i32 %9, %14
  br i1 %19, label %21, label %.thread

.thread:                                          ; preds = %2, %18
  %20 = tail call i32 @strcmp(ptr noundef nonnull dereferenceable(1) %3, ptr noundef nonnull dereferenceable(1) %4) #22
  br label %21

21:                                               ; preds = %18, %._crit_edge, %.thread
  %.019 = phi i32 [ %20, %.thread ], [ -1, %._crit_edge ], [ 1, %18 ]
  ret i32 %.019
}